; Function Attrs: inlinehint mustprogress nofree norecurse nosync nounwind willreturn memory(read, argmem: readwrite, inaccessiblemem: none) uwtable
define internal fastcc i32 @get_bits_long(ptr noundef captures(none) %0, i32 noundef %1) unnamed_addr #6 {
  %.not = icmp eq i32 %1, 0
  br i1 %.not, label %40, label %3

3:                                                ; preds = %2
  %4 = icmp slt i32 %1, 26
  %5 = getelementptr inbounds nuw i8, ptr %0, i64 16
  %6 = load i32, ptr %5, align 8, !tbaa !99
  %7 = getelementptr inbounds nuw i8, ptr %0, i64 24
  %8 = load i32, ptr %7, align 8, !tbaa !97
  %9 = load ptr, ptr %0, align 8, !tbaa !95
  %10 = lshr i32 %6, 3
  %11 = zext nneg i32 %10 to i64
  %12 = getelementptr inbounds nuw i8, ptr %9, i64 %11
  %13 = load i32, ptr %12, align 1, !tbaa !108
  %14 = tail call i32 @llvm.bswap.i32(i32 %13)
  %15 = and i32 %6, 7
  %16 = shl i32 %14, %15
  br i1 %4, label %17, label %22

17:                                               ; preds = %3
  %18 = sub nsw i32 32, %1
  %19 = lshr i32 %16, %18
  %20 = add i32 %6, %1
  %21 = tail call i32 @llvm.umin.i32(i32 %8, i32 %20)
  store i32 %21, ptr %5, align 8, !tbaa !99
  br label %40

22:                                               ; preds = %3
  %23 = lshr i32 %16, 16
  %24 = add i32 %6, 16
  %25 = tail call i32 @llvm.umin.i32(i32 %8, i32 %24)
  store i32 %25, ptr %5, align 8, !tbaa !99
  %26 = add nsw i32 %1, -16
  %27 = shl i32 %23, %26
  %28 = lshr i32 %25, 3
  %29 = zext nneg i32 %28 to i64
  %30 = getelementptr inbounds nuw i8, ptr %9, i64 %29
  %31 = load i32, ptr %30, align 1, !tbaa !108
  %32 = tail call i32 @llvm.bswap.i32(i32 %31)
  %33 = and i32 %25, 7
  %34 = shl i32 %32, %33
  %35 = sub nsw i32 48, %1
  %36 = lshr i32 %34, %35
  %37 = add i32 %25, %26
  %38 = tail call i32 @llvm.umin.i32(i32 %8, i32 %37)
  store i32 %38, ptr %5, align 8, !tbaa !99
  %39 = or i32 %36, %27
  br label %40

40:                                               ; preds = %2, %22, %17
  %.0 = phi i32 [ %19, %17 ], [ %39, %22 ], [ 0, %2 ]
  ret i32 %.0
}